; Function Attrs: mustprogress nounwind uwtable
define dso_local noundef ptr @LLVMDIBuilderCreatePointerType(ptr noundef nonnull %0, ptr noundef %1, i64 noundef %2, i32 noundef %3, i32 noundef %4, ptr noundef %5, i64 noundef %6) local_unnamed_addr #0 {
  %8 = alloca %"class.llvm::StringRef", align 8
  store ptr %5, ptr %8, align 8
  %9 = getelementptr inbounds nuw i8, ptr %8, i64 8
  store i64 %6, ptr %9, align 8
  %.sroa.05.0.insert.ext = zext i32 %4 to i64
  %.sroa.05.0.insert.insert = or disjoint i64 %.sroa.05.0.insert.ext, 4294967296
  %10 = tail call noundef ptr @_ZN4llvm9DIBuilder17createPointerTypeEPNS_6DITypeEmjSt8optionalIjENS_9StringRefENS_24MDTupleTypedArrayWrapperINS_6DINodeEEE(ptr noundef nonnull align 8 dereferenceable(416) %0, ptr noundef %1, i64 noundef %2, i32 noundef %3, i64 %.sroa.05.0.insert.insert, ptr noundef nonnull byval(%"class.llvm::StringRef") align 8 %8, ptr null) #15
  ret ptr %10
}